; Function Attrs: mustprogress uwtable
define hidden noundef i32 @_ZN7testing8internal17Int32FromEnvOrDieEPKci(ptr noundef %0, i32 noundef %1) local_unnamed_addr #3 personality ptr @__gxx_personality_v0 {
  %3 = alloca i32, align 4
  %4 = alloca %"class.testing::Message", align 8
  %5 = tail call noundef ptr @getenv(ptr noundef %0) #53
  %6 = icmp eq ptr %5, null
  br i1 %6, label %34, label %7

7:                                                ; preds = %2
  call void @llvm.lifetime.start.p0(i64 4, ptr nonnull %3) #53
  call void @llvm.lifetime.start.p0(i64 8, ptr nonnull %4) #53
  %8 = tail call noalias noundef nonnull dereferenceable(392) ptr @_Znwm(i64 noundef 392) #55
  invoke void @_ZNSt7__cxx1118basic_stringstreamIcSt11char_traitsIcESaIcEEC1Ev(ptr noundef nonnull align 8 dereferenceable(128) %8)
          to label %_ZN7testing7MessageC2Ev.exit unwind label %9

common.resume:                                    ; preds = %_ZN7testing7MessageD2Ev.exit8, %9
  %common.resume.op = phi { ptr, i32 } [ %10, %9 ], [ %28, %_ZN7testing7MessageD2Ev.exit8 ]
  resume { ptr, i32 } %common.resume.op

9:                                                ; preds = %7
  %10 = landingpad { ptr, i32 }
          cleanup
  tail call void @_ZdlPv(ptr noundef nonnull %8) #54
  br label %common.resume

_ZN7testing7MessageC2Ev.exit:                     ; preds = %7
  store ptr %8, ptr %4, align 8
  %11 = getelementptr inbounds nuw i8, ptr %8, i64 16
  %12 = load ptr, ptr %11, align 8
  %13 = getelementptr i8, ptr %12, i64 -24
  %14 = load i64, ptr %13, align 8
  %15 = getelementptr inbounds i8, ptr %11, i64 %14
  %16 = getelementptr inbounds nuw i8, ptr %15, i64 8
  store i64 17, ptr %16, align 8
  %17 = invoke noundef nonnull align 8 dereferenceable(8) ptr @_ZSt16__ostream_insertIcSt11char_traitsIcEERSt13basic_ostreamIT_T0_ES6_PKS3_l(ptr noundef nonnull align 8 dereferenceable(8) %11, ptr noundef nonnull @.str.238, i64 noundef 34)
          to label %_ZN7testing7MessagelsIA35_cEERS0_RKT_.exit unwind label %_ZN7testing7MessageD2Ev.exit8

_ZN7testing7MessagelsIA35_cEERS0_RKT_.exit:       ; preds = %_ZN7testing7MessageC2Ev.exit
  %18 = icmp eq ptr %0, null
  br i1 %18, label %_ZStlsISt11char_traitsIcEERSt13basic_ostreamIcT_ES5_PKc.exit.i.invoke, label %_ZStlsISt11char_traitsIcEERSt13basic_ostreamIcT_ES5_PKc.exit.i

_ZStlsISt11char_traitsIcEERSt13basic_ostreamIcT_ES5_PKc.exit.i: ; preds = %_ZN7testing7MessagelsIA35_cEERS0_RKT_.exit
  %19 = tail call noundef i64 @strlen(ptr noundef nonnull dereferenceable(1) %0) #53
  br label %_ZStlsISt11char_traitsIcEERSt13basic_ostreamIcT_ES5_PKc.exit.i.invoke

_ZStlsISt11char_traitsIcEERSt13basic_ostreamIcT_ES5_PKc.exit.i.invoke: ; preds = %_ZN7testing7MessagelsIA35_cEERS0_RKT_.exit, %_ZStlsISt11char_traitsIcEERSt13basic_ostreamIcT_ES5_PKc.exit.i
  %20 = phi ptr [ %0, %_ZStlsISt11char_traitsIcEERSt13basic_ostreamIcT_ES5_PKc.exit.i ], [ @.str.80, %_ZN7testing7MessagelsIA35_cEERS0_RKT_.exit ]
  %21 = phi i64 [ %19, %_ZStlsISt11char_traitsIcEERSt13basic_ostreamIcT_ES5_PKc.exit.i ], [ 6, %_ZN7testing7MessagelsIA35_cEERS0_RKT_.exit ]
  %22 = invoke noundef nonnull align 8 dereferenceable(8) ptr @_ZSt16__ostream_insertIcSt11char_traitsIcEERSt13basic_ostreamIT_T0_ES6_PKS3_l(ptr noundef nonnull align 8 dereferenceable(8) %11, ptr noundef nonnull %20, i64 noundef %21)
          to label %_ZN7testing7MessagelsIKcEERS0_RKPT_.exit unwind label %_ZN7testing7MessageD2Ev.exit8

_ZN7testing7MessagelsIKcEERS0_RKPT_.exit:         ; preds = %_ZStlsISt11char_traitsIcEERSt13basic_ostreamIcT_ES5_PKc.exit.i.invoke
  %23 = invoke noundef zeroext i1 @_ZN7testing8internal10ParseInt32ERKNS_7MessageEPKcPi(ptr noundef nonnull align 8 dereferenceable(8) %4, ptr noundef nonnull %5, ptr noundef nonnull %3)
          to label %_ZN7testing7MessageD2Ev.exit unwind label %_ZN7testing7MessageD2Ev.exit8

_ZN7testing7MessageD2Ev.exit:                     ; preds = %_ZN7testing7MessagelsIKcEERS0_RKPT_.exit
  %24 = load ptr, ptr %8, align 8
  %25 = getelementptr inbounds nuw i8, ptr %24, i64 8
  %26 = load ptr, ptr %25, align 8
  tail call void %26(ptr noundef nonnull align 8 dereferenceable(128) %8) #53
  call void @llvm.lifetime.end.p0(i64 8, ptr nonnull %4) #53
  br i1 %23, label %32, label %27

27:                                               ; preds = %_ZN7testing7MessageD2Ev.exit
  tail call void @exit(i32 noundef 1) #60
  unreachable

_ZN7testing7MessageD2Ev.exit8:                    ; preds = %_ZStlsISt11char_traitsIcEERSt13basic_ostreamIcT_ES5_PKc.exit.i.invoke, %_ZN7testing7MessageC2Ev.exit, %_ZN7testing7MessagelsIKcEERS0_RKPT_.exit
  %28 = landingpad { ptr, i32 }
          cleanup
  %29 = load ptr, ptr %8, align 8
  %30 = getelementptr inbounds nuw i8, ptr %29, i64 8
  %31 = load ptr, ptr %30, align 8
  tail call void %31(ptr noundef nonnull align 8 dereferenceable(128) %8) #53
  call void @llvm.lifetime.end.p0(i64 8, ptr nonnull %4) #53
  call void @llvm.lifetime.end.p0(i64 4, ptr nonnull %3) #53
  br label %common.resume

32:                                               ; preds = %_ZN7testing7MessageD2Ev.exit
  %33 = load i32, ptr %3, align 4
  call void @llvm.lifetime.end.p0(i64 4, ptr nonnull %3) #53
  br label %34

34:                                               ; preds = %2, %32
  %.0 = phi i32 [ %33, %32 ], [ %1, %2 ]
  ret i32 %.0
}